target datalayout = "e-m:e-p270:32:32-p271:32:32-p272:64:64-i64:64-i128:128-f80:128-n8:16:32:64-S128"
target triple = "x86_64-pc-linux-gnu"

%struct.__loadu_ps = type { <4 x float> }
%struct.__storeu_ps = type { <4 x float> }

; Function Attrs: alwaysinline nounwind uwtable
define available_externally void @_mm_storeu_ps(ptr noundef %0, <4 x float> noundef %1) #2 {
  %3 = alloca ptr, align 8
  %4 = alloca <4 x float>, align 16
  store ptr %0, ptr %3, align 8, !tbaa !21
  store <4 x float> %1, ptr %4, align 16, !tbaa !12
  %5 = load <4 x float>, ptr %4, align 16, !tbaa !12
  %6 = load ptr, ptr %3, align 8, !tbaa !21
  %7 = getelementptr inbounds nuw %struct.__storeu_ps, ptr %6, i32 0, i32 0
  store <4 x float> %5, ptr %7, align 1, !tbaa !12
  ret void
}

; Function Attrs: alwaysinline nounwind uwtable
define available_externally <4 x float> @_mm_mul_ps(<4 x float> noundef %0, <4 x float> noundef %1) #2 {
  %3 = alloca <4 x float>, align 16
  %4 = alloca <4 x float>, align 16
  store <4 x float> %0, ptr %3, align 16, !tbaa !12
  store <4 x float> %1, ptr %4, align 16, !tbaa !12
  %5 = load <4 x float>, ptr %3, align 16, !tbaa !12
  %6 = load <4 x float>, ptr %4, align 16, !tbaa !12
  %7 = fmul <4 x float> %5, %6
  ret <4 x float> %7
}

; Function Attrs: alwaysinline nounwind uwtable
define available_externally <4 x float> @_mm_castsi128_ps(<2 x i64> noundef %0) #2 {
  %2 = alloca <2 x i64>, align 16
  store <2 x i64> %0, ptr %2, align 16, !tbaa !12
  %3 = load <2 x i64>, ptr %2, align 16, !tbaa !12
  %4 = bitcast <2 x i64> %3 to <4 x float>
  ret <4 x float> %4
}

; Function Attrs: alwaysinline nounwind uwtable
define available_externally <2 x i64> @_mm_castps_si128(<4 x float> noundef %0) #2 {
  %2 = alloca <4 x float>, align 16
  store <4 x float> %0, ptr %2, align 16, !tbaa !12
  %3 = load <4 x float>, ptr %2, align 16, !tbaa !12
  %4 = bitcast <4 x float> %3 to <2 x i64>
  ret <2 x i64> %4
}

; Function Attrs: alwaysinline nounwind uwtable
define available_externally <4 x float> @_mm_loadu_ps(ptr noundef %0) #2 {
  %2 = alloca ptr, align 8
  store ptr %0, ptr %2, align 8, !tbaa !21
  %3 = load ptr, ptr %2, align 8, !tbaa !21
  %4 = getelementptr inbounds nuw %struct.__loadu_ps, ptr %3, i32 0, i32 0
  %5 = load <4 x float>, ptr %4, align 1, !tbaa !12
  ret <4 x float> %5
}

; Function Attrs: nounwind uwtable
define void @stbir__fancy_alpha_weight_4ch(ptr noundef %0, i32 noundef %1) #0 {
  %3 = alloca ptr, align 8
  %4 = alloca i32, align 4
  %5 = alloca ptr, align 8
  %6 = alloca ptr, align 8
  %7 = alloca ptr, align 8
  %8 = alloca <4 x float>, align 16
  %9 = alloca <4 x float>, align 16
  %10 = alloca <4 x float>, align 16
  %11 = alloca <4 x float>, align 16
  %12 = alloca <4 x float>, align 16
  %13 = alloca <4 x float>, align 16
  %14 = alloca <4 x float>, align 16
  %15 = alloca <4 x float>, align 16
  %16 = alloca <4 x float>, align 16
  store ptr %0, ptr %3, align 8, !tbaa !21
  store i32 %1, ptr %4, align 4, !tbaa !26
  call void @llvm.lifetime.start.p0(i64 8, ptr %5) #12
  %17 = load ptr, ptr %3, align 8, !tbaa !21
  store ptr %17, ptr %5, align 8, !tbaa !21
  call void @llvm.lifetime.start.p0(i64 8, ptr %6) #12
  %18 = load ptr, ptr %3, align 8, !tbaa !21
  %19 = load i32, ptr %4, align 4, !tbaa !26
  %20 = sdiv i32 %19, 4
  %21 = mul nsw i32 %20, 7
  %22 = sext i32 %21 to i64
  %23 = getelementptr inbounds float, ptr %18, i64 %22
  store ptr %23, ptr %6, align 8, !tbaa !21
  call void @llvm.lifetime.start.p0(i64 8, ptr %7) #12
  %24 = load ptr, ptr %6, align 8, !tbaa !21
  %25 = load i32, ptr %4, align 4, !tbaa !26
  %26 = sext i32 %25 to i64
  %27 = sub i64 0, %26
  %28 = getelementptr inbounds float, ptr %24, i64 %27
  store ptr %28, ptr %7, align 8, !tbaa !21
  %29 = load ptr, ptr %7, align 8, !tbaa !21
  %30 = getelementptr inbounds float, ptr %29, i64 8
  store ptr %30, ptr %7, align 8, !tbaa !21
  br label %31

31:                                               ; preds = %35, %2
  %32 = load ptr, ptr %7, align 8, !tbaa !21
  %33 = load ptr, ptr %6, align 8, !tbaa !21
  %34 = icmp ule ptr %32, %33
  br i1 %34, label %35, label %78

35:                                               ; preds = %31
  call void @llvm.lifetime.start.p0(i64 16, ptr %8) #12
  call void @llvm.lifetime.start.p0(i64 16, ptr %9) #12
  call void @llvm.lifetime.start.p0(i64 16, ptr %10) #12
  call void @llvm.lifetime.start.p0(i64 16, ptr %11) #12
  call void @llvm.lifetime.start.p0(i64 16, ptr %12) #12
  call void @llvm.lifetime.start.p0(i64 16, ptr %13) #12
  %36 = load ptr, ptr %7, align 8, !tbaa !21
  call void asm sideeffect "", "r,~{dirflag},~{fpsr},~{flags}"(ptr %36) #12, !srcloc !494
  %37 = load ptr, ptr %7, align 8, !tbaa !21
  %38 = getelementptr inbounds float, ptr %37, i64 -8
  %39 = call <4 x float> @_mm_loadu_ps(ptr noundef %38)
  store <4 x float> %39, ptr %8, align 16, !tbaa !12
  %40 = load ptr, ptr %7, align 8, !tbaa !21
  %41 = getelementptr inbounds float, ptr %40, i64 -8
  %42 = getelementptr inbounds float, ptr %41, i64 4
  %43 = call <4 x float> @_mm_loadu_ps(ptr noundef %42)
  store <4 x float> %43, ptr %10, align 16, !tbaa !12
  %44 = load <4 x float>, ptr %8, align 16, !tbaa !12
  %45 = call <2 x i64> @_mm_castps_si128(<4 x float> noundef %44)
  %46 = bitcast <2 x i64> %45 to <4 x i32>
  %47 = shufflevector <4 x i32> %46, <4 x i32> poison, <4 x i32> <i32 3, i32 3, i32 3, i32 3>
  %48 = bitcast <4 x i32> %47 to <2 x i64>
  %49 = call <4 x float> @_mm_castsi128_ps(<2 x i64> noundef %48)
  store <4 x float> %49, ptr %9, align 16, !tbaa !12
  %50 = load <4 x float>, ptr %10, align 16, !tbaa !12
  %51 = call <2 x i64> @_mm_castps_si128(<4 x float> noundef %50)
  %52 = bitcast <2 x i64> %51 to <4 x i32>
  %53 = shufflevector <4 x i32> %52, <4 x i32> poison, <4 x i32> <i32 3, i32 3, i32 3, i32 3>
  %54 = bitcast <4 x i32> %53 to <2 x i64>
  %55 = call <4 x float> @_mm_castsi128_ps(<2 x i64> noundef %54)
  store <4 x float> %55, ptr %11, align 16, !tbaa !12
  %56 = load <4 x float>, ptr %9, align 16, !tbaa !12
  %57 = load <4 x float>, ptr %8, align 16, !tbaa !12
  %58 = call <4 x float> @_mm_mul_ps(<4 x float> noundef %56, <4 x float> noundef %57)
  store <4 x float> %58, ptr %12, align 16, !tbaa !12
  %59 = load <4 x float>, ptr %11, align 16, !tbaa !12
  %60 = load <4 x float>, ptr %10, align 16, !tbaa !12
  %61 = call <4 x float> @_mm_mul_ps(<4 x float> noundef %59, <4 x float> noundef %60)
  store <4 x float> %61, ptr %13, align 16, !tbaa !12
  %62 = load ptr, ptr %5, align 8, !tbaa !21
  %63 = load <4 x float>, ptr %8, align 16, !tbaa !12
  call void @_mm_storeu_ps(ptr noundef %62, <4 x float> noundef %63)
  %64 = load ptr, ptr %5, align 8, !tbaa !21
  %65 = getelementptr inbounds float, ptr %64, i64 4
  %66 = load <4 x float>, ptr %12, align 16, !tbaa !12
  call void @_mm_storeu_ps(ptr noundef %65, <4 x float> noundef %66)
  %67 = load ptr, ptr %5, align 8, !tbaa !21
  %68 = getelementptr inbounds float, ptr %67, i64 7
  %69 = load <4 x float>, ptr %10, align 16, !tbaa !12
  call void @_mm_storeu_ps(ptr noundef %68, <4 x float> noundef %69)
  %70 = load ptr, ptr %5, align 8, !tbaa !21
  %71 = getelementptr inbounds float, ptr %70, i64 7
  %72 = getelementptr inbounds float, ptr %71, i64 4
  %73 = load <4 x float>, ptr %13, align 16, !tbaa !12
  call void @_mm_storeu_ps(ptr noundef %72, <4 x float> noundef %73)
  %74 = load ptr, ptr %7, align 8, !tbaa !21
  %75 = getelementptr inbounds float, ptr %74, i64 8
  store ptr %75, ptr %7, align 8, !tbaa !21
  %76 = load ptr, ptr %5, align 8, !tbaa !21
  %77 = getelementptr inbounds float, ptr %76, i64 14
  store ptr %77, ptr %5, align 8, !tbaa !21
  call void @llvm.lifetime.end.p0(i64 16, ptr %13) #12
  call void @llvm.lifetime.end.p0(i64 16, ptr %12) #12
  call void @llvm.lifetime.end.p0(i64 16, ptr %11) #12
  call void @llvm.lifetime.end.p0(i64 16, ptr %10) #12
  call void @llvm.lifetime.end.p0(i64 16, ptr %9) #12
  call void @llvm.lifetime.end.p0(i64 16, ptr %8) #12
  br label %31, !llvm.loop !495

78:                                               ; preds = %31
  %79 = load ptr, ptr %7, align 8, !tbaa !21
  %80 = getelementptr inbounds float, ptr %79, i64 -8
  store ptr %80, ptr %7, align 8, !tbaa !21
  %81 = load ptr, ptr %7, align 8, !tbaa !21
  %82 = load ptr, ptr %6, align 8, !tbaa !21
  %83 = icmp ult ptr %81, %82
  br i1 %83, label %84, label %106

84:                                               ; preds = %78
  call void @llvm.lifetime.start.p0(i64 16, ptr %14) #12
  call void @llvm.lifetime.start.p0(i64 16, ptr %15) #12
  call void @llvm.lifetime.start.p0(i64 16, ptr %16) #12
  %85 = load ptr, ptr %7, align 8, !tbaa !21
  call void asm sideeffect "", "r,~{dirflag},~{fpsr},~{flags}"(ptr %85) #12, !srcloc !496
  %86 = load ptr, ptr %7, align 8, !tbaa !21
  %87 = call <4 x float> @_mm_loadu_ps(ptr noundef %86)
  store <4 x float> %87, ptr %14, align 16, !tbaa !12
  %88 = load <4 x float>, ptr %14, align 16, !tbaa !12
  %89 = call <2 x i64> @_mm_castps_si128(<4 x float> noundef %88)
  %90 = bitcast <2 x i64> %89 to <4 x i32>
  %91 = shufflevector <4 x i32> %90, <4 x i32> poison, <4 x i32> <i32 3, i32 3, i32 3, i32 3>
  %92 = bitcast <4 x i32> %91 to <2 x i64>
  %93 = call <4 x float> @_mm_castsi128_ps(<2 x i64> noundef %92)
  store <4 x float> %93, ptr %15, align 16, !tbaa !12
  %94 = load <4 x float>, ptr %15, align 16, !tbaa !12
  %95 = load <4 x float>, ptr %14, align 16, !tbaa !12
  %96 = call <4 x float> @_mm_mul_ps(<4 x float> noundef %94, <4 x float> noundef %95)
  store <4 x float> %96, ptr %16, align 16, !tbaa !12
  %97 = load ptr, ptr %5, align 8, !tbaa !21
  %98 = load <4 x float>, ptr %14, align 16, !tbaa !12
  call void @_mm_storeu_ps(ptr noundef %97, <4 x float> noundef %98)
  %99 = load ptr, ptr %5, align 8, !tbaa !21
  %100 = getelementptr inbounds float, ptr %99, i64 4
  %101 = load <4 x float>, ptr %16, align 16, !tbaa !12
  call void @_mm_storeu_ps(ptr noundef %100, <4 x float> noundef %101)
  %102 = load ptr, ptr %7, align 8, !tbaa !21
  %103 = getelementptr inbounds float, ptr %102, i64 4
  store ptr %103, ptr %7, align 8, !tbaa !21
  %104 = load ptr, ptr %5, align 8, !tbaa !21
  %105 = getelementptr inbounds float, ptr %104, i64 7
  store ptr %105, ptr %5, align 8, !tbaa !21
  call void @llvm.lifetime.end.p0(i64 16, ptr %16) #12
  call void @llvm.lifetime.end.p0(i64 16, ptr %15) #12
  call void @llvm.lifetime.end.p0(i64 16, ptr %14) #12
  br label %106

106:                                              ; preds = %84, %78
  call void @llvm.lifetime.end.p0(i64 8, ptr %7) #12
  call void @llvm.lifetime.end.p0(i64 8, ptr %6) #12
  call void @llvm.lifetime.end.p0(i64 8, ptr %5) #12
  ret void
}