; Function Attrs: nounwind uwtable
define void @stbir__fancy_alpha_weight_4ch(ptr noundef %0, i32 noundef %1) #0 {
  %3 = sdiv i32 %1, 4
  %4 = mul nsw i32 %3, 7
  %5 = sext i32 %4 to i64
  %6 = getelementptr inbounds float, ptr %0, i64 %5
  %7 = sext i32 %1 to i64
  %8 = sub nsw i64 0, %7
  %9 = getelementptr inbounds float, ptr %6, i64 %8
  %.04043 = getelementptr inbounds nuw i8, ptr %9, i64 32
  %.not44 = icmp ugt ptr %.04043, %6
  br i1 %.not44, label %._crit_edge, label %.lr.ph

.lr.ph:                                           ; preds = %2, %.lr.ph
  %.04047 = phi ptr [ %.040, %.lr.ph ], [ %.04043, %2 ]
  %.046 = phi ptr [ %20, %.lr.ph ], [ %0, %2 ]
  %.pn45 = phi ptr [ %.04047, %.lr.ph ], [ %9, %2 ]
  tail call void asm sideeffect "", "r,~{dirflag},~{fpsr},~{flags}"(ptr nonnull %.04047) #24, !srcloc !422
  %10 = load <4 x float>, ptr %.pn45, align 1, !tbaa !4
  %11 = getelementptr inbounds nuw i8, ptr %.pn45, i64 16
  %12 = load <4 x float>, ptr %11, align 1, !tbaa !4
  %13 = shufflevector <4 x float> %10, <4 x float> poison, <4 x i32> <i32 3, i32 3, i32 3, i32 3>
  %14 = shufflevector <4 x float> %12, <4 x float> poison, <4 x i32> <i32 3, i32 3, i32 3, i32 3>
  %15 = fmul <4 x float> %10, %13
  %16 = fmul <4 x float> %12, %14
  store <4 x float> %10, ptr %.046, align 1, !tbaa !4
  %17 = getelementptr inbounds nuw i8, ptr %.046, i64 16
  store <4 x float> %15, ptr %17, align 1, !tbaa !4
  %18 = getelementptr inbounds nuw i8, ptr %.046, i64 28
  store <4 x float> %12, ptr %18, align 1, !tbaa !4
  %19 = getelementptr inbounds nuw i8, ptr %.046, i64 44
  store <4 x float> %16, ptr %19, align 1, !tbaa !4
  %20 = getelementptr inbounds nuw i8, ptr %.046, i64 56
  %.040 = getelementptr inbounds nuw i8, ptr %.04047, i64 32
  %.not = icmp ugt ptr %.040, %6
  br i1 %.not, label %._crit_edge, label %.lr.ph, !llvm.loop !423

._crit_edge:                                      ; preds = %.lr.ph, %2
  %.pn.lcssa = phi ptr [ %9, %2 ], [ %.04047, %.lr.ph ]
  %.0.lcssa = phi ptr [ %0, %2 ], [ %20, %.lr.ph ]
  %21 = icmp ult ptr %.pn.lcssa, %6
  br i1 %21, label %22, label %27

22:                                               ; preds = %._crit_edge
  tail call void asm sideeffect "", "r,~{dirflag},~{fpsr},~{flags}"(ptr nonnull %.pn.lcssa) #24, !srcloc !424
  %23 = load <4 x float>, ptr %.pn.lcssa, align 1, !tbaa !4
  %24 = shufflevector <4 x float> %23, <4 x float> poison, <4 x i32> <i32 3, i32 3, i32 3, i32 3>
  %25 = fmul <4 x float> %23, %24
  store <4 x float> %23, ptr %.0.lcssa, align 1, !tbaa !4
  %26 = getelementptr inbounds nuw i8, ptr %.0.lcssa, i64 16
  store <4 x float> %25, ptr %26, align 1, !tbaa !4
  br label %27

27:                                               ; preds = %22, %._crit_edge
  ret void
}